; Function Attrs: mustprogress nofree norecurse nosync nounwind willreturn memory(argmem: read) uwtable
define dso_local noundef zeroext i1 @_ZNK4Luau8PositioneqERKS0_(ptr nocapture noundef nonnull readonly align 4 dereferenceable(8) %0, ptr nocapture noundef nonnull readonly align 4 dereferenceable(8) %1) local_unnamed_addr #0 align 2 {
  %3 = load <2 x i32>, ptr %0, align 4
  %4 = load <2 x i32>, ptr %1, align 4
  %5 = icmp eq <2 x i32> %3, %4
  %6 = extractelement <2 x i1> %5, i64 0
  %7 = extractelement <2 x i1> %5, i64 1
  %8 = select i1 %7, i1 %6, i1 false
  ret i1 %8
}